target datalayout = "e-m:e-p270:32:32-p271:32:32-p272:64:64-i64:64-i128:128-f80:128-n8:16:32:64-S128"
target triple = "x86_64-pc-linux-gnu"

%struct.SDL_CameraDriver = type { ptr, ptr, %struct.SDL_CameraDriverImpl, ptr, ptr, %struct.SDL_PendingCameraEvent, ptr, %struct.SDL_AtomicInt, %struct.SDL_AtomicInt }
%struct.SDL_CameraDriverImpl = type { ptr, ptr, ptr, ptr, ptr, ptr, ptr, ptr, i8 }
%struct.SDL_PendingCameraEvent = type { i32, i32, ptr }
%struct.SDL_AtomicInt = type { i32 }
%struct.SDL_Camera = type { ptr, ptr, i32, %struct.SDL_AtomicInt, ptr, ptr, ptr, ptr, i32, %struct.SDL_CameraSpec, %struct.SDL_CameraSpec, i32, ptr, i32, i64, i64, ptr, ptr, [8 x %struct.SurfaceList], %struct.SurfaceList, %struct.SurfaceList, %struct.SurfaceList, ptr, i32, i8, %struct.SDL_AtomicInt, %struct.SDL_AtomicInt, ptr, i32, i32, ptr }
%struct.SDL_CameraSpec = type { i32, i32, i32, i32, i32, i32 }
%struct.SurfaceList = type { ptr, i64, ptr }

@camera_driver = internal global %struct.SDL_CameraDriver zeroinitializer, align 8
@.str.3 = private unnamed_addr constant [36 x i8] c"Camera subsystem is not initialized\00", align 1
@.str.13 = private unnamed_addr constant [34 x i8] c"Invalid camera device instance ID\00", align 1

; Function Attrs: nounwind uwtable
define hidden void @RefPhysicalCamera(ptr noundef %0) #0 {
  %2 = alloca ptr, align 8
  store ptr %0, ptr %2, align 8
  %3 = load ptr, ptr %2, align 8
  %4 = getelementptr inbounds nuw %struct.SDL_Camera, ptr %3, i32 0, i32 3
  %5 = call i32 @SDL_AddAtomicInt_REAL(ptr noundef %4, i32 noundef 1)
  ret void
}

; Function Attrs: nounwind uwtable
define internal void @ObtainPhysicalCameraObj(ptr noundef %0) #0 {
  %2 = alloca ptr, align 8
  store ptr %0, ptr %2, align 8
  %3 = load ptr, ptr %2, align 8
  %4 = icmp ne ptr %3, null
  br i1 %4, label %5, label %10

5:                                                ; preds = %1
  %6 = load ptr, ptr %2, align 8
  call void @RefPhysicalCamera(ptr noundef %6)
  %7 = load ptr, ptr %2, align 8
  %8 = getelementptr inbounds nuw %struct.SDL_Camera, ptr %7, i32 0, i32 0
  %9 = load ptr, ptr %8, align 8
  call void @SDL_LockMutex_REAL(ptr noundef %9)
  br label %10

10:                                               ; preds = %5, %1
  ret void
}

; Function Attrs: nounwind uwtable
define hidden ptr @SDL_GetCurrentCameraDriver_REAL() #0 {
  %1 = load ptr, ptr @camera_driver, align 8
  ret ptr %1
}

; Function Attrs: nounwind uwtable
define internal ptr @ObtainPhysicalCamera(i32 noundef %0) #0 {
  %2 = alloca ptr, align 8
  %3 = alloca i32, align 4
  %4 = alloca ptr, align 8
  store i32 %0, ptr %3, align 4
  %5 = call ptr @SDL_GetCurrentCameraDriver_REAL()
  %6 = icmp ne ptr %5, null
  br i1 %6, label %9, label %7

7:                                                ; preds = %1
  %8 = call zeroext i1 (ptr, ...) @SDL_SetError_REAL(ptr noundef @.str.3)
  store ptr null, ptr %2, align 8
  br label %25

9:                                                ; preds = %1
  call void @llvm.lifetime.start.p0(i64 8, ptr %4) #7
  store ptr null, ptr %4, align 8
  %10 = load ptr, ptr getelementptr inbounds nuw (%struct.SDL_CameraDriver, ptr @camera_driver, i32 0, i32 3), align 8
  call void @SDL_LockRWLockForReading_REAL(ptr noundef %10)
  %11 = load ptr, ptr getelementptr inbounds nuw (%struct.SDL_CameraDriver, ptr @camera_driver, i32 0, i32 4), align 8
  %12 = load i32, ptr %3, align 4
  %13 = zext i32 %12 to i64
  %14 = inttoptr i64 %13 to ptr
  %15 = call zeroext i1 @SDL_FindInHashTable(ptr noundef %11, ptr noundef %14, ptr noundef %4)
  %16 = load ptr, ptr getelementptr inbounds nuw (%struct.SDL_CameraDriver, ptr @camera_driver, i32 0, i32 3), align 8
  call void @SDL_UnlockRWLock_REAL(ptr noundef %16)
  %17 = load ptr, ptr %4, align 8
  %18 = icmp ne ptr %17, null
  br i1 %18, label %21, label %19

19:                                               ; preds = %9
  %20 = call zeroext i1 (ptr, ...) @SDL_SetError_REAL(ptr noundef @.str.13)
  br label %23

21:                                               ; preds = %9
  %22 = load ptr, ptr %4, align 8
  call void @ObtainPhysicalCameraObj(ptr noundef %22)
  br label %23

23:                                               ; preds = %21, %19
  %24 = load ptr, ptr %4, align 8
  store ptr %24, ptr %2, align 8
  call void @llvm.lifetime.end.p0(i64 8, ptr %4) #7
  br label %25

25:                                               ; preds = %23, %7
  %26 = load ptr, ptr %2, align 8
  ret ptr %26
}