; Function Attrs: nounwind uwtable
define internal fastcc ptr @ObtainPhysicalCamera(i32 noundef %0) unnamed_addr #1 {
  %2 = alloca ptr, align 8
  %3 = load ptr, ptr @camera_driver, align 8
  %.not = icmp eq ptr %3, null
  br i1 %.not, label %4, label %6

4:                                                ; preds = %1
  %5 = tail call zeroext i1 (ptr, ...) @SDL_SetError_REAL(ptr noundef nonnull @.str.3) #11
  br label %22

6:                                                ; preds = %1
  call void @llvm.lifetime.start.p0(i64 8, ptr nonnull %2) #11
  store ptr null, ptr %2, align 8
  %7 = load ptr, ptr getelementptr inbounds nuw (i8, ptr @camera_driver, i64 88), align 8
  tail call void @SDL_LockRWLockForReading_REAL(ptr noundef %7) #11
  %8 = load ptr, ptr getelementptr inbounds nuw (i8, ptr @camera_driver, i64 96), align 8
  %9 = zext i32 %0 to i64
  %10 = inttoptr i64 %9 to ptr
  %11 = call zeroext i1 @SDL_FindInHashTable(ptr noundef %8, ptr noundef %10, ptr noundef nonnull %2) #11
  %12 = load ptr, ptr getelementptr inbounds nuw (i8, ptr @camera_driver, i64 88), align 8
  call void @SDL_UnlockRWLock_REAL(ptr noundef %12) #11
  %13 = load ptr, ptr %2, align 8
  %.not2 = icmp eq ptr %13, null
  br i1 %.not2, label %14, label %16

14:                                               ; preds = %6
  %15 = call zeroext i1 (ptr, ...) @SDL_SetError_REAL(ptr noundef nonnull @.str.13) #11
  br label %20

16:                                               ; preds = %6
  %17 = getelementptr inbounds nuw i8, ptr %13, i64 20
  %18 = call i32 @SDL_AddAtomicInt_REAL(ptr noundef nonnull %17, i32 noundef 1) #11
  %19 = load ptr, ptr %13, align 8
  call void @SDL_LockMutex_REAL(ptr noundef %19) #11
  br label %20

20:                                               ; preds = %16, %14
  %21 = load ptr, ptr %2, align 8
  call void @llvm.lifetime.end.p0(i64 8, ptr nonnull %2) #11
  br label %22

22:                                               ; preds = %20, %4
  %.0 = phi ptr [ %21, %20 ], [ null, %4 ]
  ret ptr %.0
}